target datalayout = "e-m:e-p270:32:32-p271:32:32-p272:64:64-i64:64-i128:128-f80:128-n8:16:32:64-S128"
target triple = "x86_64-pc-linux-gnu"

%struct.rb_data_type_struct = type { ptr, %struct.anon, ptr, ptr, i64 }
%struct.anon = type { ptr, ptr, ptr, ptr, [1 x ptr] }
%struct.strscanner = type { i64, i64, i64, i64, %struct.re_registers, i64, i8 }
%struct.re_registers = type { i32, i32, ptr, ptr }
%struct.RString = type { %struct.RBasic, i64, %union.anon }
%struct.RBasic = type { i64, i64 }
%union.anon = type { %struct.anon.0 }
%struct.anon.0 = type { ptr, %union.anon.1 }
%union.anon.1 = type { i64 }
%struct.anon.2 = type { [1 x i8] }

@strscanner_type = internal constant %struct.rb_data_type_struct { ptr @.str.2, %struct.anon { ptr @strscan_mark, ptr @strscan_free, ptr @strscan_memsize, ptr null, [1 x ptr] zeroinitializer }, ptr null, ptr null, i64 1 }, align 8
@rb_eArgError = external global i64, align 8
@.str.66 = private unnamed_addr constant [35 x i8] c"uninitialized StringScanner object\00", align 1

; Function Attrs: inlinehint nounwind sspstrong willreturn memory(read) uwtable
define internal i64 @RB_FL_TEST_RAW(i64 noundef %0, i64 noundef %1) #11 {
  %3 = alloca i64, align 8
  %4 = alloca i64, align 8
  store i64 %0, ptr %3, align 8, !tbaa !6
  store i64 %1, ptr %4, align 8, !tbaa !6
  %5 = load i64, ptr %3, align 8, !tbaa !6
  %6 = inttoptr i64 %5 to ptr
  %7 = getelementptr inbounds nuw %struct.RBasic, ptr %6, i32 0, i32 0
  %8 = load i64, ptr %7, align 8, !tbaa !61
  %9 = load i64, ptr %4, align 8, !tbaa !6
  %10 = and i64 %8, %9
  ret i64 %10
}

; Function Attrs: inlinehint nounwind sspstrong willreturn memory(read) uwtable
define internal zeroext i1 @RB_FL_ANY_RAW(i64 noundef %0, i64 noundef %1) #11 {
  %3 = alloca i64, align 8
  %4 = alloca i64, align 8
  store i64 %0, ptr %3, align 8, !tbaa !6
  store i64 %1, ptr %4, align 8, !tbaa !6
  %5 = load i64, ptr %3, align 8, !tbaa !6
  %6 = load i64, ptr %4, align 8, !tbaa !6
  %7 = call i64 @RB_FL_TEST_RAW(i64 noundef %5, i64 noundef %6) #28
  %8 = icmp ne i64 %7, 0
  ret i1 %8
}

; Function Attrs: inlinehint nounwind sspstrong willreturn memory(read, argmem: readwrite) uwtable
define internal void @rbimpl_rstring_getmem(ptr dead_on_unwind noalias writable sret(%struct.RString) align 8 %0, i64 noundef %1) #13 {
  %3 = alloca i64, align 8
  store i64 %1, ptr %3, align 8, !tbaa !6
  %4 = load i64, ptr %3, align 8, !tbaa !6
  %5 = call zeroext i1 @RB_FL_ANY_RAW(i64 noundef %4, i64 noundef 8192) #28
  br i1 %5, label %6, label %9

6:                                                ; preds = %2
  %7 = load i64, ptr %3, align 8, !tbaa !6
  %8 = inttoptr i64 %7 to ptr
  call void @llvm.memcpy.p0.p0.i64(ptr align 8 %0, ptr align 8 %8, i64 40, i1 false), !tbaa.struct !62
  br label %20

9:                                                ; preds = %2
  %10 = load i64, ptr %3, align 8, !tbaa !6
  %11 = call i64 @RSTRING_LEN(i64 noundef %10) #28
  %12 = getelementptr inbounds nuw %struct.RString, ptr %0, i32 0, i32 1
  store i64 %11, ptr %12, align 8, !tbaa !35
  %13 = load i64, ptr %3, align 8, !tbaa !6
  %14 = inttoptr i64 %13 to ptr
  %15 = getelementptr inbounds nuw %struct.RString, ptr %14, i32 0, i32 2
  %16 = getelementptr inbounds nuw %struct.anon.2, ptr %15, i32 0, i32 0
  %17 = getelementptr inbounds [1 x i8], ptr %16, i64 0, i64 0
  %18 = getelementptr inbounds nuw %struct.RString, ptr %0, i32 0, i32 2
  %19 = getelementptr inbounds nuw %struct.anon.0, ptr %18, i32 0, i32 0
  store ptr %17, ptr %19, align 8, !tbaa !31
  br label %20

20:                                               ; preds = %9, %6
  ret void
}

; Function Attrs: nounwind sspstrong uwtable
define internal void @adjust_registers_to_matched(ptr noundef %0) #0 {
  %2 = alloca ptr, align 8
  store ptr %0, ptr %2, align 8, !tbaa !15
  %3 = load ptr, ptr %2, align 8, !tbaa !15
  %4 = getelementptr inbounds nuw %struct.strscanner, ptr %3, i32 0, i32 4
  call void @onig_region_clear(ptr noundef %4)
  %5 = load ptr, ptr %2, align 8, !tbaa !15
  %6 = getelementptr inbounds nuw %struct.strscanner, ptr %5, i32 0, i32 6
  %7 = load i8, ptr %6, align 8, !tbaa !25, !range !41, !noundef !42
  %8 = trunc i8 %7 to i1
  br i1 %8, label %9, label %21

9:                                                ; preds = %1
  %10 = load ptr, ptr %2, align 8, !tbaa !15
  %11 = getelementptr inbounds nuw %struct.strscanner, ptr %10, i32 0, i32 4
  %12 = load ptr, ptr %2, align 8, !tbaa !15
  %13 = getelementptr inbounds nuw %struct.strscanner, ptr %12, i32 0, i32 2
  %14 = load i64, ptr %13, align 8, !tbaa !26
  %15 = trunc i64 %14 to i32
  %16 = load ptr, ptr %2, align 8, !tbaa !15
  %17 = getelementptr inbounds nuw %struct.strscanner, ptr %16, i32 0, i32 3
  %18 = load i64, ptr %17, align 8, !tbaa !27
  %19 = trunc i64 %18 to i32
  %20 = call i32 @onig_region_set(ptr noundef %11, i32 noundef 0, i32 noundef %15, i32 noundef %19)
  br label %33

21:                                               ; preds = %1
  %22 = load ptr, ptr %2, align 8, !tbaa !15
  %23 = getelementptr inbounds nuw %struct.strscanner, ptr %22, i32 0, i32 4
  %24 = load ptr, ptr %2, align 8, !tbaa !15
  %25 = getelementptr inbounds nuw %struct.strscanner, ptr %24, i32 0, i32 3
  %26 = load i64, ptr %25, align 8, !tbaa !27
  %27 = load ptr, ptr %2, align 8, !tbaa !15
  %28 = getelementptr inbounds nuw %struct.strscanner, ptr %27, i32 0, i32 2
  %29 = load i64, ptr %28, align 8, !tbaa !26
  %30 = sub nsw i64 %26, %29
  %31 = trunc i64 %30 to i32
  %32 = call i32 @onig_region_set(ptr noundef %23, i32 noundef 0, i32 noundef 0, i32 noundef %31)
  br label %33

33:                                               ; preds = %21, %9
  ret void
}

; Function Attrs: inlinehint nounwind sspstrong willreturn memory(none) uwtable
define internal i64 @RB_INT2FIX(i64 noundef %0) #7 {
  %2 = alloca i64, align 8
  %3 = alloca i64, align 8
  %4 = alloca i64, align 8
  %5 = alloca i64, align 8
  %6 = alloca i64, align 8
  %7 = alloca i64, align 8
  store i64 %0, ptr %2, align 8, !tbaa !6
  call void @llvm.lifetime.start.p0(i64 8, ptr %3) #23
  %8 = load i64, ptr %2, align 8, !tbaa !6
  store i64 %8, ptr %3, align 8, !tbaa !6
  call void @llvm.lifetime.start.p0(i64 8, ptr %4) #23
  %9 = load i64, ptr %3, align 8, !tbaa !6
  %10 = shl i64 %9, 1
  %11 = add i64 %10, 1
  store i64 %11, ptr %4, align 8, !tbaa !6
  call void @llvm.lifetime.start.p0(i64 8, ptr %5) #23
  %12 = load i64, ptr %4, align 8, !tbaa !6
  store i64 %12, ptr %5, align 8, !tbaa !6
  call void @llvm.lifetime.start.p0(i64 8, ptr %6) #23
  %13 = load i64, ptr %5, align 8, !tbaa !6
  store i64 %13, ptr %6, align 8, !tbaa !6
  call void @llvm.lifetime.start.p0(i64 8, ptr %7) #23
  %14 = load i64, ptr %6, align 8, !tbaa !6
  store i64 %14, ptr %7, align 8, !tbaa !6
  %15 = load i64, ptr %7, align 8, !tbaa !6
  call void @llvm.lifetime.end.p0(i64 8, ptr %7) #23
  call void @llvm.lifetime.end.p0(i64 8, ptr %6) #23
  call void @llvm.lifetime.end.p0(i64 8, ptr %5) #23
  call void @llvm.lifetime.end.p0(i64 8, ptr %4) #23
  call void @llvm.lifetime.end.p0(i64 8, ptr %3) #23
  ret i64 %15
}

; Function Attrs: inlinehint nounwind sspstrong uwtable
define internal ptr @RSTRING_PTR(i64 noundef %0) #4 {
  %2 = alloca i64, align 8
  %3 = alloca ptr, align 8
  %4 = alloca %struct.RString, align 8
  store i64 %0, ptr %2, align 8, !tbaa !6
  call void @llvm.lifetime.start.p0(i64 8, ptr %3) #23
  %5 = load i64, ptr %2, align 8, !tbaa !6
  call void @rbimpl_rstring_getmem(ptr dead_on_unwind writable sret(%struct.RString) align 8 %4, i64 noundef %5) #29
  %6 = getelementptr inbounds nuw %struct.RString, ptr %4, i32 0, i32 2
  %7 = getelementptr inbounds nuw %struct.anon.0, ptr %6, i32 0, i32 0
  %8 = load ptr, ptr %7, align 8, !tbaa !31
  store ptr %8, ptr %3, align 8, !tbaa !12
  %9 = load ptr, ptr %3, align 8, !tbaa !12
  call void @llvm.lifetime.end.p0(i64 8, ptr %3) #23
  ret ptr %9
}

; Function Attrs: inlinehint nounwind sspstrong willreturn memory(read) uwtable
define internal i64 @RSTRING_LEN(i64 noundef %0) #11 {
  %2 = alloca i64, align 8
  store i64 %0, ptr %2, align 8, !tbaa !6
  %3 = load i64, ptr %2, align 8, !tbaa !6
  %4 = inttoptr i64 %3 to ptr
  %5 = getelementptr inbounds nuw %struct.RString, ptr %4, i32 0, i32 1
  %6 = load i64, ptr %5, align 8, !tbaa !35
  ret i64 %6
}

; Function Attrs: inlinehint nounwind sspstrong willreturn memory(none) uwtable
define internal zeroext i1 @RB_NIL_P(i64 noundef %0) #7 {
  %2 = alloca i64, align 8
  store i64 %0, ptr %2, align 8, !tbaa !6
  %3 = load i64, ptr %2, align 8, !tbaa !6
  %4 = icmp eq i64 %3, 4
  ret i1 %4
}

; Function Attrs: nounwind sspstrong uwtable
define internal ptr @check_strscan(i64 noundef %0) #0 {
  %2 = alloca i64, align 8
  store i64 %0, ptr %2, align 8, !tbaa !6
  %3 = load i64, ptr %2, align 8, !tbaa !6
  %4 = call ptr @rb_check_typeddata(i64 noundef %3, ptr noundef @strscanner_type)
  ret ptr %4
}

; Function Attrs: nounwind sspstrong uwtable
define internal i64 @strscan_scan_byte(i64 noundef %0) #0 {
  %2 = alloca i64, align 8
  %3 = alloca i64, align 8
  %4 = alloca ptr, align 8
  %5 = alloca i64, align 8
  %6 = alloca i32, align 4
  store i64 %0, ptr %3, align 8, !tbaa !6
  call void @llvm.lifetime.start.p0(i64 8, ptr %4) #23
  call void @llvm.lifetime.start.p0(i64 8, ptr %5) #23
  br label %7

7:                                                ; preds = %1
  %8 = load i64, ptr %3, align 8, !tbaa !6
  %9 = call ptr @check_strscan(i64 noundef %8)
  store ptr %9, ptr %4, align 8, !tbaa !15
  %10 = load ptr, ptr %4, align 8, !tbaa !15
  %11 = getelementptr inbounds nuw %struct.strscanner, ptr %10, i32 0, i32 1
  %12 = load i64, ptr %11, align 8, !tbaa !22
  %13 = call zeroext i1 @RB_NIL_P(i64 noundef %12) #24
  br i1 %13, label %14, label %16

14:                                               ; preds = %7
  %15 = load i64, ptr @rb_eArgError, align 8, !tbaa !6
  call void (i64, ptr, ...) @rb_raise(i64 noundef %15, ptr noundef @.str.66) #27
  unreachable

16:                                               ; preds = %7
  br label %17

17:                                               ; preds = %16
  br label %18

18:                                               ; preds = %17
  %19 = load ptr, ptr %4, align 8, !tbaa !15
  %20 = getelementptr inbounds nuw %struct.strscanner, ptr %19, i32 0, i32 0
  %21 = load i64, ptr %20, align 8, !tbaa !17
  %22 = and i64 %21, -2
  store i64 %22, ptr %20, align 8, !tbaa !17
  %23 = load ptr, ptr %4, align 8, !tbaa !15
  %24 = getelementptr inbounds nuw %struct.strscanner, ptr %23, i32 0, i32 3
  %25 = load i64, ptr %24, align 8, !tbaa !27
  %26 = load ptr, ptr %4, align 8, !tbaa !15
  %27 = getelementptr inbounds nuw %struct.strscanner, ptr %26, i32 0, i32 1
  %28 = load i64, ptr %27, align 8, !tbaa !22
  %29 = call i64 @RSTRING_LEN(i64 noundef %28) #28
  %30 = icmp sge i64 %25, %29
  br i1 %30, label %31, label %32

31:                                               ; preds = %18
  store i64 4, ptr %2, align 8
  store i32 1, ptr %6, align 4
  br label %59

32:                                               ; preds = %18
  %33 = load ptr, ptr %4, align 8, !tbaa !15
  %34 = getelementptr inbounds nuw %struct.strscanner, ptr %33, i32 0, i32 1
  %35 = load i64, ptr %34, align 8, !tbaa !22
  %36 = call ptr @RSTRING_PTR(i64 noundef %35)
  %37 = load ptr, ptr %4, align 8, !tbaa !15
  %38 = getelementptr inbounds nuw %struct.strscanner, ptr %37, i32 0, i32 3
  %39 = load i64, ptr %38, align 8, !tbaa !27
  %40 = getelementptr inbounds i8, ptr %36, i64 %39
  %41 = load i8, ptr %40, align 1, !tbaa !31
  %42 = zext i8 %41 to i64
  %43 = call i64 @RB_INT2FIX(i64 noundef %42) #24
  store i64 %43, ptr %5, align 8, !tbaa !6
  %44 = load ptr, ptr %4, align 8, !tbaa !15
  %45 = getelementptr inbounds nuw %struct.strscanner, ptr %44, i32 0, i32 3
  %46 = load i64, ptr %45, align 8, !tbaa !27
  %47 = load ptr, ptr %4, align 8, !tbaa !15
  %48 = getelementptr inbounds nuw %struct.strscanner, ptr %47, i32 0, i32 2
  store i64 %46, ptr %48, align 8, !tbaa !26
  %49 = load ptr, ptr %4, align 8, !tbaa !15
  %50 = getelementptr inbounds nuw %struct.strscanner, ptr %49, i32 0, i32 3
  %51 = load i64, ptr %50, align 8, !tbaa !27
  %52 = add nsw i64 %51, 1
  store i64 %52, ptr %50, align 8, !tbaa !27
  %53 = load ptr, ptr %4, align 8, !tbaa !15
  %54 = getelementptr inbounds nuw %struct.strscanner, ptr %53, i32 0, i32 0
  %55 = load i64, ptr %54, align 8, !tbaa !17
  %56 = or i64 %55, 1
  store i64 %56, ptr %54, align 8, !tbaa !17
  %57 = load ptr, ptr %4, align 8, !tbaa !15
  call void @adjust_registers_to_matched(ptr noundef %57)
  %58 = load i64, ptr %5, align 8, !tbaa !6
  store i64 %58, ptr %2, align 8
  store i32 1, ptr %6, align 4
  br label %59

59:                                               ; preds = %32, %31
  call void @llvm.lifetime.end.p0(i64 8, ptr %5) #23
  call void @llvm.lifetime.end.p0(i64 8, ptr %4) #23
  %60 = load i64, ptr %2, align 8
  ret i64 %60
}