; Function Attrs: nounwind sspstrong uwtable
define internal range(i64 1, 512) i64 @strscan_scan_byte(i64 noundef %0) #0 {
  %2 = tail call ptr @rb_check_typeddata(i64 noundef %0, ptr noundef nonnull @strscanner_type) #12
  %3 = getelementptr inbounds nuw i8, ptr %2, i64 8
  %4 = load i64, ptr %3, align 8, !tbaa !23
  %5 = icmp eq i64 %4, 4
  br i1 %5, label %6, label %8

6:                                                ; preds = %1
  %7 = load i64, ptr @rb_eArgError, align 8, !tbaa !10
  tail call void (i64, ptr, ...) @rb_raise(i64 noundef %7, ptr noundef nonnull @.str.66) #14
  unreachable

8:                                                ; preds = %1
  %9 = load i64, ptr %2, align 8, !tbaa !18
  %10 = and i64 %9, -2
  store i64 %10, ptr %2, align 8, !tbaa !18
  %11 = getelementptr inbounds nuw i8, ptr %2, i64 24
  %12 = load i64, ptr %11, align 8, !tbaa !29
  %13 = inttoptr i64 %4 to ptr
  %14 = getelementptr inbounds nuw i8, ptr %13, i64 16
  %15 = load i64, ptr %14, align 8, !tbaa !32
  %.not = icmp slt i64 %12, %15
  br i1 %.not, label %16, label %43

16:                                               ; preds = %8
  %17 = load i64, ptr %13, align 8, !tbaa !34, !noalias !51
  %18 = and i64 %17, 8192
  %.not.i.i = icmp eq i64 %18, 0
  %19 = getelementptr inbounds nuw i8, ptr %13, i64 24
  br i1 %.not.i.i, label %RSTRING_PTR.exit, label %20

20:                                               ; preds = %16
  %.sroa.2.0.copyload.i = load ptr, ptr %19, align 8
  br label %RSTRING_PTR.exit

RSTRING_PTR.exit:                                 ; preds = %16, %20
  %.sroa.2.0.i = phi ptr [ %.sroa.2.0.copyload.i, %20 ], [ %19, %16 ]
  %21 = getelementptr inbounds i8, ptr %.sroa.2.0.i, i64 %12
  %22 = load i8, ptr %21, align 1, !tbaa !54
  %23 = zext i8 %22 to i64
  %24 = shl nuw nsw i64 %23, 1
  %25 = or disjoint i64 %24, 1
  %26 = getelementptr inbounds nuw i8, ptr %2, i64 16
  store i64 %12, ptr %26, align 8, !tbaa !28
  %27 = add nsw i64 %12, 1
  store i64 %27, ptr %11, align 8, !tbaa !29
  %28 = or i64 %9, 1
  store i64 %28, ptr %2, align 8, !tbaa !18
  %29 = getelementptr inbounds nuw i8, ptr %2, i64 32
  tail call void @onig_region_clear(ptr noundef nonnull %29) #12
  %30 = getelementptr inbounds nuw i8, ptr %2, i64 64
  %31 = load i8, ptr %30, align 8, !tbaa !27, !range !41, !noundef !42
  %32 = trunc nuw i8 %31 to i1
  br i1 %32, label %33, label %37

33:                                               ; preds = %RSTRING_PTR.exit
  %34 = load i64, ptr %26, align 8, !tbaa !28
  %35 = trunc i64 %34 to i32
  %36 = load i64, ptr %11, align 8, !tbaa !29
  br label %adjust_registers_to_matched.exit

37:                                               ; preds = %RSTRING_PTR.exit
  %38 = load i64, ptr %11, align 8, !tbaa !29
  %39 = load i64, ptr %26, align 8, !tbaa !28
  %40 = sub nsw i64 %38, %39
  br label %adjust_registers_to_matched.exit

adjust_registers_to_matched.exit:                 ; preds = %33, %37
  %.sink9.i = phi i64 [ %40, %37 ], [ %36, %33 ]
  %.sink.i = phi i32 [ 0, %37 ], [ %35, %33 ]
  %41 = trunc i64 %.sink9.i to i32
  %42 = tail call i32 @onig_region_set(ptr noundef nonnull %29, i32 noundef 0, i32 noundef %.sink.i, i32 noundef %41) #12
  br label %43

43:                                               ; preds = %8, %adjust_registers_to_matched.exit
  %.0 = phi i64 [ %25, %adjust_registers_to_matched.exit ], [ 4, %8 ]
  ret i64 %.0
}